
VersdOS_student.elf:     file format elf32-littlearm

Sections:
Idx Name          Size      VMA       LMA       File off  Algn
  0 .isr_vector   00000198  08000000  08000000  00010000  2**0
                  CONTENTS, ALLOC, LOAD, READONLY, DATA
  1 .text         000008f8  08000198  08000198  00010198  2**2
                  CONTENTS, ALLOC, LOAD, READONLY, CODE
  2 .rodata       00000000  08000a90  08000a90  00020064  2**0
                  CONTENTS, ALLOC, LOAD, DATA
  3 .ARM.extab    00000000  08000a90  08000a90  00020064  2**0
                  CONTENTS
  4 .ARM          00000000  08000a90  08000a90  00020064  2**0
                  CONTENTS
  5 .preinit_array 00000000  08000a90  08000a90  00020064  2**0
                  CONTENTS, ALLOC, LOAD, DATA
  6 .init_array   00000004  08000a90  08000a90  00010a90  2**2
                  CONTENTS, ALLOC, LOAD, DATA
  7 .fini_array   00000004  08000a94  08000a94  00010a94  2**2
                  CONTENTS, ALLOC, LOAD, DATA
  8 .data         00000064  20000000  08000a98  00020000  2**2
                  CONTENTS, ALLOC, LOAD, DATA
  9 .bss          0000008c  20000064  08000afc  00020064  2**2
                  ALLOC
 10 ._user_heap_stack 00000600  200000f0  08000afc  000200f0  2**0
                  ALLOC
 11 .ARM.attributes 00000030  00000000  00000000  00020064  2**0
                  CONTENTS, READONLY
 12 .debug_info   00000c61  00000000  00000000  00020094  2**0
                  CONTENTS, READONLY, DEBUGGING, OCTETS
 13 .debug_abbrev 00000498  00000000  00000000  00020cf5  2**0
                  CONTENTS, READONLY, DEBUGGING, OCTETS
 14 .debug_aranges 00000108  00000000  00000000  00021190  2**3
                  CONTENTS, READONLY, DEBUGGING, OCTETS
 15 .debug_ranges 000000c0  00000000  00000000  00021298  2**3
                  CONTENTS, READONLY, DEBUGGING, OCTETS
 16 .debug_macro  0000e809  00000000  00000000  00021358  2**0
                  CONTENTS, READONLY, DEBUGGING, OCTETS
 17 .debug_line   00001062  00000000  00000000  0002fb61  2**0
                  CONTENTS, READONLY, DEBUGGING, OCTETS
 18 .debug_str    0005301f  00000000  00000000  00030bc3  2**0
                  CONTENTS, READONLY, DEBUGGING, OCTETS
 19 .comment      00000050  00000000  00000000  00083be2  2**0
                  CONTENTS, READONLY
 20 .debug_frame  00000498  00000000  00000000  00083c34  2**2
                  CONTENTS, READONLY, DEBUGGING, OCTETS

Disassembly of section .text:

08000198 <__do_global_dtors_aux>:
 8000198:	b510      	push	{r4, lr}
 800019a:	4c05      	ldr	r4, [pc, #20]	; (80001b0 <__do_global_dtors_aux+0x18>)
 800019c:	7823      	ldrb	r3, [r4, #0]
 800019e:	b933      	cbnz	r3, 80001ae <__do_global_dtors_aux+0x16>
 80001a0:	4b04      	ldr	r3, [pc, #16]	; (80001b4 <__do_global_dtors_aux+0x1c>)
 80001a2:	b113      	cbz	r3, 80001aa <__do_global_dtors_aux+0x12>
 80001a4:	4804      	ldr	r0, [pc, #16]	; (80001b8 <__do_global_dtors_aux+0x20>)
 80001a6:	f3af 8000 	nop.w
 80001aa:	2301      	movs	r3, #1
 80001ac:	7023      	strb	r3, [r4, #0]
 80001ae:	bd10      	pop	{r4, pc}
 80001b0:	20000064 	.word	0x20000064
 80001b4:	00000000 	.word	0x00000000
 80001b8:	08000a78 	.word	0x08000a78

080001bc <frame_dummy>:
 80001bc:	b508      	push	{r3, lr}
 80001be:	4b03      	ldr	r3, [pc, #12]	; (80001cc <frame_dummy+0x10>)
 80001c0:	b11b      	cbz	r3, 80001ca <frame_dummy+0xe>
 80001c2:	4903      	ldr	r1, [pc, #12]	; (80001d0 <frame_dummy+0x14>)
 80001c4:	4803      	ldr	r0, [pc, #12]	; (80001d4 <frame_dummy+0x18>)
 80001c6:	f3af 8000 	nop.w
 80001ca:	bd08      	pop	{r3, pc}
 80001cc:	00000000 	.word	0x00000000
 80001d0:	20000068 	.word	0x20000068
 80001d4:	08000a78 	.word	0x08000a78

080001d8 <pushRegistersToCurrentPSP>:
        .global returnToPSP
        .global returnToMSP
       // .global SVC_Handler
		
pushRegistersToCurrentPSP:
		MRS 	r0	, psp			//Move PSP to register R0 (the function argument)
 80001d8:	f3ef 8009 	mrs	r0, PSP
		STMDB 	r0!	, {r4-r11}		//Store multiple registers decrement address before each access,
 80001dc:	e920 0ff0 	stmdb	r0!, {r4, r5, r6, r7, r8, r9, sl, fp}
									//when done write back last used address to %0 (new SP location)
		MSR 	psp	, r0			//Move register %0 to psp to update to the new SP, output to scratch
 80001e0:	f380 8809 	msr	PSP, r0
		MOV		PC	, LR			//return by moving link-register to program counter
 80001e4:	46f7      	mov	pc, lr

080001e6 <popRegistersFromCurrentPSP>:

popRegistersFromCurrentPSP:
		MRS 	R0	, psp			//Move PSP to register R0
 80001e6:	f3ef 8009 	mrs	r0, PSP
		LDMIA 	R0!	, {r4-r11}		//Load multiple registers increment address after each access,
 80001ea:	e8b0 0ff0 	ldmia.w	r0!, {r4, r5, r6, r7, r8, r9, sl, fp}
									//when done write back last used address to R0 (new SP location)
		MSR 	psp	, R0			//Move register R0 to psp to update to the new SP, output to scratch
 80001ee:	f380 8809 	msr	PSP, r0
		MOV		PC	, LR			//return by moving link-register to program counter
 80001f2:	46f7      	mov	pc, lr

080001f4 <readPSP>:

readPSP:
		MRS 	R0 , psp			//move psp to r0
 80001f4:	f3ef 8009 	mrs	r0, PSP
		MOV		PC	, LR			//return by moving link-register to program counter
 80001f8:	46f7      	mov	pc, lr

080001fa <writePSP>:

writePSP:
    	MSR 	psp	, R0			//Move r0 to psp.
 80001fa:	f380 8809 	msr	PSP, r0
    	ISB							//flush pipeline
 80001fe:	f3bf 8f6f 	isb	sy
		MOV		PC	, LR			//return by moving link-register to program counter
 8000202:	46f7      	mov	pc, lr

08000204 <returnToPSP>:

returnToPSP:
		ldr 	lr, =0xFFFFFFFD         //terug met process stack
 8000204:	f06f 0e02 	mvn.w	lr, #2
		bx		lr
 8000208:	4770      	bx	lr

0800020a <returnToMSP>:

returnToMSP:
		ldr 	lr, =0xFFFFFFF9         //terug met process stack
 800020a:	f06f 0e06 	mvn.w	lr, #6
		bx		lr
 800020e:	4770      	bx	lr

08000210 <idleTask>:
task * currentTask;
task * taskToExecute;

// Idle task
void idleTask(void)
{
 8000210:	b480      	push	{r7}
 8000212:	af00      	add	r7, sp, #0
	while (1)
	{
		__asm(" wfi"); // Sleep until next SysTick
 8000214:	bf30      	wfi
 8000216:	e7fd      	b.n	8000214 <idleTask+0x4>

08000218 <addTaskToListAtIndex>:
}



void addTaskToListAtIndex(void (*function)(void), uint32_t stackSize, int8_t priority, size_t pos)
{
 8000218:	b580      	push	{r7, lr}
 800021a:	b086      	sub	sp, #24
 800021c:	af00      	add	r7, sp, #0
 800021e:	60f8      	str	r0, [r7, #12]
 8000220:	60b9      	str	r1, [r7, #8]
 8000222:	603b      	str	r3, [r7, #0]
 8000224:	4613      	mov	r3, r2
 8000226:	71fb      	strb	r3, [r7, #7]
	task *taskToAdd = &taskList[pos];
 8000228:	683b      	ldr	r3, [r7, #0]
 800022a:	011b      	lsls	r3, r3, #4
 800022c:	4a63      	ldr	r2, [pc, #396]	; (80003bc <addTaskToListAtIndex+0x1a4>)
 800022e:	4413      	add	r3, r2
 8000230:	617b      	str	r3, [r7, #20]

	taskToAdd->function = function;
 8000232:	697b      	ldr	r3, [r7, #20]
 8000234:	68fa      	ldr	r2, [r7, #12]
 8000236:	609a      	str	r2, [r3, #8]
	// Allocate memory... do we wanna use malloc or our own implementation ;-) ?
	taskToAdd->stack = (int *)malloc(stackSize)+stackSize;
 8000238:	68b8      	ldr	r0, [r7, #8]
 800023a:	f000 fb55 	bl	80008e8 <malloc>
 800023e:	4603      	mov	r3, r0
 8000240:	461a      	mov	r2, r3
 8000242:	68bb      	ldr	r3, [r7, #8]
 8000244:	009b      	lsls	r3, r3, #2
 8000246:	441a      	add	r2, r3
 8000248:	697b      	ldr	r3, [r7, #20]
 800024a:	601a      	str	r2, [r3, #0]

	/*
	 * For debugging purposes we initialize the stack with
	 * values that we can recognize.
	 */
	*(--(taskToAdd->stack)) 	= 0x01000000;					//XSPR Thumb bit set
 800024c:	697b      	ldr	r3, [r7, #20]
 800024e:	681b      	ldr	r3, [r3, #0]
 8000250:	1f1a      	subs	r2, r3, #4
 8000252:	697b      	ldr	r3, [r7, #20]
 8000254:	601a      	str	r2, [r3, #0]
 8000256:	697b      	ldr	r3, [r7, #20]
 8000258:	681b      	ldr	r3, [r3, #0]
 800025a:	f04f 7280 	mov.w	r2, #16777216	; 0x1000000
 800025e:	601a      	str	r2, [r3, #0]
	*(--(taskToAdd->stack)) 	= 0x01000000;					//program status register
 8000260:	697b      	ldr	r3, [r7, #20]
 8000262:	681b      	ldr	r3, [r3, #0]
 8000264:	1f1a      	subs	r2, r3, #4
 8000266:	697b      	ldr	r3, [r7, #20]
 8000268:	601a      	str	r2, [r3, #0]
 800026a:	697b      	ldr	r3, [r7, #20]
 800026c:	681b      	ldr	r3, [r3, #0]
 800026e:	f04f 7280 	mov.w	r2, #16777216	; 0x1000000
 8000272:	601a      	str	r2, [r3, #0]
	*(--(taskToAdd->stack)) 	= (int)taskToAdd->function; 	//set PC to function pointer, cast as int to silence the compiler
 8000274:	697b      	ldr	r3, [r7, #20]
 8000276:	6899      	ldr	r1, [r3, #8]
 8000278:	697b      	ldr	r3, [r7, #20]
 800027a:	681b      	ldr	r3, [r3, #0]
 800027c:	1f1a      	subs	r2, r3, #4
 800027e:	697b      	ldr	r3, [r7, #20]
 8000280:	601a      	str	r2, [r3, #0]
 8000282:	697b      	ldr	r3, [r7, #20]
 8000284:	681b      	ldr	r3, [r3, #0]
 8000286:	460a      	mov	r2, r1
 8000288:	601a      	str	r2, [r3, #0]
	*(--(taskToAdd->stack)) 	= 0xFFFFFFFD; 					//LR, return with process stack (PSP)
 800028a:	697b      	ldr	r3, [r7, #20]
 800028c:	681b      	ldr	r3, [r3, #0]
 800028e:	1f1a      	subs	r2, r3, #4
 8000290:	697b      	ldr	r3, [r7, #20]
 8000292:	601a      	str	r2, [r3, #0]
 8000294:	697b      	ldr	r3, [r7, #20]
 8000296:	681b      	ldr	r3, [r3, #0]
 8000298:	f06f 0202 	mvn.w	r2, #2
 800029c:	601a      	str	r2, [r3, #0]
	*(--(taskToAdd->stack)) 	= 0x0000000C;					//R12	Initial values used for debugging purposes
 800029e:	697b      	ldr	r3, [r7, #20]
 80002a0:	681b      	ldr	r3, [r3, #0]
 80002a2:	1f1a      	subs	r2, r3, #4
 80002a4:	697b      	ldr	r3, [r7, #20]
 80002a6:	601a      	str	r2, [r3, #0]
 80002a8:	697b      	ldr	r3, [r7, #20]
 80002aa:	681b      	ldr	r3, [r3, #0]
 80002ac:	220c      	movs	r2, #12
 80002ae:	601a      	str	r2, [r3, #0]
	*(--(taskToAdd->stack)) 	= 0x00000003;					//R3
 80002b0:	697b      	ldr	r3, [r7, #20]
 80002b2:	681b      	ldr	r3, [r3, #0]
 80002b4:	1f1a      	subs	r2, r3, #4
 80002b6:	697b      	ldr	r3, [r7, #20]
 80002b8:	601a      	str	r2, [r3, #0]
 80002ba:	697b      	ldr	r3, [r7, #20]
 80002bc:	681b      	ldr	r3, [r3, #0]
 80002be:	2203      	movs	r2, #3
 80002c0:	601a      	str	r2, [r3, #0]
	*(--(taskToAdd->stack)) 	= 0x00000002;					//R2
 80002c2:	697b      	ldr	r3, [r7, #20]
 80002c4:	681b      	ldr	r3, [r3, #0]
 80002c6:	1f1a      	subs	r2, r3, #4
 80002c8:	697b      	ldr	r3, [r7, #20]
 80002ca:	601a      	str	r2, [r3, #0]
 80002cc:	697b      	ldr	r3, [r7, #20]
 80002ce:	681b      	ldr	r3, [r3, #0]
 80002d0:	2202      	movs	r2, #2
 80002d2:	601a      	str	r2, [r3, #0]
	*(--(taskToAdd->stack)) 	= 0x00000001;					//R1
 80002d4:	697b      	ldr	r3, [r7, #20]
 80002d6:	681b      	ldr	r3, [r3, #0]
 80002d8:	1f1a      	subs	r2, r3, #4
 80002da:	697b      	ldr	r3, [r7, #20]
 80002dc:	601a      	str	r2, [r3, #0]
 80002de:	697b      	ldr	r3, [r7, #20]
 80002e0:	681b      	ldr	r3, [r3, #0]
 80002e2:	2201      	movs	r2, #1
 80002e4:	601a      	str	r2, [r3, #0]
	*(--(taskToAdd->stack)) 	= 0x00000000;					//R0
 80002e6:	697b      	ldr	r3, [r7, #20]
 80002e8:	681b      	ldr	r3, [r3, #0]
 80002ea:	1f1a      	subs	r2, r3, #4
 80002ec:	697b      	ldr	r3, [r7, #20]
 80002ee:	601a      	str	r2, [r3, #0]
 80002f0:	697b      	ldr	r3, [r7, #20]
 80002f2:	681b      	ldr	r3, [r3, #0]
 80002f4:	2200      	movs	r2, #0
 80002f6:	601a      	str	r2, [r3, #0]

	if(pos!=IDLE_TASK)
 80002f8:	683b      	ldr	r3, [r7, #0]
 80002fa:	2b04      	cmp	r3, #4
 80002fc:	d04b      	beq.n	8000396 <addTaskToListAtIndex+0x17e>
	{
		*(--(taskToAdd->stack)) 	= 0x0000000B;					//R11
 80002fe:	697b      	ldr	r3, [r7, #20]
 8000300:	681b      	ldr	r3, [r3, #0]
 8000302:	1f1a      	subs	r2, r3, #4
 8000304:	697b      	ldr	r3, [r7, #20]
 8000306:	601a      	str	r2, [r3, #0]
 8000308:	697b      	ldr	r3, [r7, #20]
 800030a:	681b      	ldr	r3, [r3, #0]
 800030c:	220b      	movs	r2, #11
 800030e:	601a      	str	r2, [r3, #0]
		*(--(taskToAdd->stack)) 	= 0x0000000A;					//R10
 8000310:	697b      	ldr	r3, [r7, #20]
 8000312:	681b      	ldr	r3, [r3, #0]
 8000314:	1f1a      	subs	r2, r3, #4
 8000316:	697b      	ldr	r3, [r7, #20]
 8000318:	601a      	str	r2, [r3, #0]
 800031a:	697b      	ldr	r3, [r7, #20]
 800031c:	681b      	ldr	r3, [r3, #0]
 800031e:	220a      	movs	r2, #10
 8000320:	601a      	str	r2, [r3, #0]
		*(--(taskToAdd->stack)) 	= 0x00000009;					//R9
 8000322:	697b      	ldr	r3, [r7, #20]
 8000324:	681b      	ldr	r3, [r3, #0]
 8000326:	1f1a      	subs	r2, r3, #4
 8000328:	697b      	ldr	r3, [r7, #20]
 800032a:	601a      	str	r2, [r3, #0]
 800032c:	697b      	ldr	r3, [r7, #20]
 800032e:	681b      	ldr	r3, [r3, #0]
 8000330:	2209      	movs	r2, #9
 8000332:	601a      	str	r2, [r3, #0]
		*(--(taskToAdd->stack)) 	= 0x00000008;					//R8
 8000334:	697b      	ldr	r3, [r7, #20]
 8000336:	681b      	ldr	r3, [r3, #0]
 8000338:	1f1a      	subs	r2, r3, #4
 800033a:	697b      	ldr	r3, [r7, #20]
 800033c:	601a      	str	r2, [r3, #0]
 800033e:	697b      	ldr	r3, [r7, #20]
 8000340:	681b      	ldr	r3, [r3, #0]
 8000342:	2208      	movs	r2, #8
 8000344:	601a      	str	r2, [r3, #0]
		*(--(taskToAdd->stack)) 	= 0x00000007;					//R7
 8000346:	697b      	ldr	r3, [r7, #20]
 8000348:	681b      	ldr	r3, [r3, #0]
 800034a:	1f1a      	subs	r2, r3, #4
 800034c:	697b      	ldr	r3, [r7, #20]
 800034e:	601a      	str	r2, [r3, #0]
 8000350:	697b      	ldr	r3, [r7, #20]
 8000352:	681b      	ldr	r3, [r3, #0]
 8000354:	2207      	movs	r2, #7
 8000356:	601a      	str	r2, [r3, #0]
		*(--(taskToAdd->stack)) 	= 0x00000006;					//R6
 8000358:	697b      	ldr	r3, [r7, #20]
 800035a:	681b      	ldr	r3, [r3, #0]
 800035c:	1f1a      	subs	r2, r3, #4
 800035e:	697b      	ldr	r3, [r7, #20]
 8000360:	601a      	str	r2, [r3, #0]
 8000362:	697b      	ldr	r3, [r7, #20]
 8000364:	681b      	ldr	r3, [r3, #0]
 8000366:	2206      	movs	r2, #6
 8000368:	601a      	str	r2, [r3, #0]
		*(--(taskToAdd->stack)) 	= 0x00000005;					//R5
 800036a:	697b      	ldr	r3, [r7, #20]
 800036c:	681b      	ldr	r3, [r3, #0]
 800036e:	1f1a      	subs	r2, r3, #4
 8000370:	697b      	ldr	r3, [r7, #20]
 8000372:	601a      	str	r2, [r3, #0]
 8000374:	697b      	ldr	r3, [r7, #20]
 8000376:	681b      	ldr	r3, [r3, #0]
 8000378:	2205      	movs	r2, #5
 800037a:	601a      	str	r2, [r3, #0]
		*(--(taskToAdd->stack)) 	= 0x00000004;					//R4
 800037c:	697b      	ldr	r3, [r7, #20]
 800037e:	681b      	ldr	r3, [r3, #0]
 8000380:	1f1a      	subs	r2, r3, #4
 8000382:	697b      	ldr	r3, [r7, #20]
 8000384:	601a      	str	r2, [r3, #0]
 8000386:	697b      	ldr	r3, [r7, #20]
 8000388:	681b      	ldr	r3, [r3, #0]
 800038a:	2204      	movs	r2, #4
 800038c:	601a      	str	r2, [r3, #0]
		// Initialize the task properties
		taskToAdd->state 		= READY;
 800038e:	697b      	ldr	r3, [r7, #20]
 8000390:	2202      	movs	r2, #2
 8000392:	731a      	strb	r2, [r3, #12]
 8000394:	e00a      	b.n	80003ac <addTaskToListAtIndex+0x194>
	}else{
		taskToAdd->state 		= RUNNING;
 8000396:	697b      	ldr	r3, [r7, #20]
 8000398:	2201      	movs	r2, #1
 800039a:	731a      	strb	r2, [r3, #12]
		currentTask = taskToAdd;
 800039c:	4a08      	ldr	r2, [pc, #32]	; (80003c0 <addTaskToListAtIndex+0x1a8>)
 800039e:	697b      	ldr	r3, [r7, #20]
 80003a0:	6013      	str	r3, [r2, #0]
		// Update the CPU PSP with our new stack pointer
		writePSP(taskToAdd->stack);
 80003a2:	697b      	ldr	r3, [r7, #20]
 80003a4:	681b      	ldr	r3, [r3, #0]
 80003a6:	4618      	mov	r0, r3
 80003a8:	f7ff ff27 	bl	80001fa <writePSP>
	}

	taskToAdd->priority 	= priority;
 80003ac:	697b      	ldr	r3, [r7, #20]
 80003ae:	79fa      	ldrb	r2, [r7, #7]
 80003b0:	735a      	strb	r2, [r3, #13]
}
 80003b2:	bf00      	nop
 80003b4:	3718      	adds	r7, #24
 80003b6:	46bd      	mov	sp, r7
 80003b8:	bd80      	pop	{r7, pc}
 80003ba:	bf00      	nop
 80003bc:	20000080 	.word	0x20000080
 80003c0:	200000d0 	.word	0x200000d0

080003c4 <addTaskToList>:
 * fills the stack up so that the context switch will
 * successfully pop these registers and start running
 * at the correct address when returning from the SysTick ISR
 */
void addTaskToList(void (*function)(void), uint32_t stackSize, int8_t priority)
{
 80003c4:	b580      	push	{r7, lr}
 80003c6:	b086      	sub	sp, #24
 80003c8:	af00      	add	r7, sp, #0
 80003ca:	60f8      	str	r0, [r7, #12]
 80003cc:	60b9      	str	r1, [r7, #8]
 80003ce:	4613      	mov	r3, r2
 80003d0:	71fb      	strb	r3, [r7, #7]
	size_t i = 0;
 80003d2:	2300      	movs	r3, #0
 80003d4:	617b      	str	r3, [r7, #20]
	// Simply find the next empty slot
	// Loops when no more slots are available
	while(taskList[i].state != UNUSED)
 80003d6:	e006      	b.n	80003e6 <addTaskToList+0x22>
	{
		//increment i and roll back at the limit
		i++;
 80003d8:	697b      	ldr	r3, [r7, #20]
 80003da:	3301      	adds	r3, #1
 80003dc:	617b      	str	r3, [r7, #20]
		i &= TASK_MASK;
 80003de:	697b      	ldr	r3, [r7, #20]
 80003e0:	f003 0303 	and.w	r3, r3, #3
 80003e4:	617b      	str	r3, [r7, #20]
	while(taskList[i].state != UNUSED)
 80003e6:	4a09      	ldr	r2, [pc, #36]	; (800040c <addTaskToList+0x48>)
 80003e8:	697b      	ldr	r3, [r7, #20]
 80003ea:	011b      	lsls	r3, r3, #4
 80003ec:	4413      	add	r3, r2
 80003ee:	330c      	adds	r3, #12
 80003f0:	781b      	ldrb	r3, [r3, #0]
 80003f2:	2b00      	cmp	r3, #0
 80003f4:	d1f0      	bne.n	80003d8 <addTaskToList+0x14>
	}
	addTaskToListAtIndex(function, stackSize, priority, i);
 80003f6:	f997 2007 	ldrsb.w	r2, [r7, #7]
 80003fa:	697b      	ldr	r3, [r7, #20]
 80003fc:	68b9      	ldr	r1, [r7, #8]
 80003fe:	68f8      	ldr	r0, [r7, #12]
 8000400:	f7ff ff0a 	bl	8000218 <addTaskToListAtIndex>
}
 8000404:	bf00      	nop
 8000406:	3718      	adds	r7, #24
 8000408:	46bd      	mov	sp, r7
 800040a:	bd80      	pop	{r7, pc}
 800040c:	20000080 	.word	0x20000080

08000410 <startVersdOS>:

void startVersdOS(uint16_t sysTickPeriodIn_ms) {
 8000410:	b580      	push	{r7, lr}
 8000412:	b084      	sub	sp, #16
 8000414:	af00      	add	r7, sp, #0
 8000416:	4603      	mov	r3, r0
 8000418:	80fb      	strh	r3, [r7, #6]
	// Configure SysTick of 1 ms
	SysTick->LOAD = sysTickPeriodIn_ms * CLOCK_FREQ_IN_KHz - 1;
 800041a:	88fb      	ldrh	r3, [r7, #6]
 800041c:	4a13      	ldr	r2, [pc, #76]	; (800046c <startVersdOS+0x5c>)
 800041e:	fb02 f303 	mul.w	r3, r2, r3
 8000422:	1e5a      	subs	r2, r3, #1
 8000424:	4b12      	ldr	r3, [pc, #72]	; (8000470 <startVersdOS+0x60>)
 8000426:	605a      	str	r2, [r3, #4]
	SysTick->VAL = 0;
 8000428:	4b11      	ldr	r3, [pc, #68]	; (8000470 <startVersdOS+0x60>)
 800042a:	2200      	movs	r2, #0
 800042c:	609a      	str	r2, [r3, #8]
	SysTick->CTRL = SysTick_CTRL_CLKSOURCE_Msk //Clock source selection = Processor clock (AHB)
 800042e:	4b10      	ldr	r3, [pc, #64]	; (8000470 <startVersdOS+0x60>)
 8000430:	2207      	movs	r2, #7
 8000432:	601a      	str	r2, [r3, #0]
					| SysTick_CTRL_TICKINT_Msk //Counting down to zero to asserts the SysTick exception request
					| SysTick_CTRL_ENABLE_Msk; //Counter enable

	//set systick and pendsv interrupt priority to lowest.
	//svc will be highest.
	SCB->SHP[2] |= 0xFF<<24;
 8000434:	4a0f      	ldr	r2, [pc, #60]	; (8000474 <startVersdOS+0x64>)
 8000436:	4b0f      	ldr	r3, [pc, #60]	; (8000474 <startVersdOS+0x64>)
 8000438:	7e92      	ldrb	r2, [r2, #26]
 800043a:	b2d2      	uxtb	r2, r2
 800043c:	769a      	strb	r2, [r3, #26]
	SCB->SHP[2]  |= 0xFF<<16;
 800043e:	4a0d      	ldr	r2, [pc, #52]	; (8000474 <startVersdOS+0x64>)
 8000440:	4b0c      	ldr	r3, [pc, #48]	; (8000474 <startVersdOS+0x64>)
 8000442:	7e92      	ldrb	r2, [r2, #26]
 8000444:	b2d2      	uxtb	r2, r2
 8000446:	769a      	strb	r2, [r3, #26]

	// Create Idle task
	addTaskToListAtIndex(idleTask, 128, -1, IDLE_TASK);
 8000448:	2304      	movs	r3, #4
 800044a:	f04f 32ff 	mov.w	r2, #4294967295	; 0xffffffff
 800044e:	2180      	movs	r1, #128	; 0x80
 8000450:	4809      	ldr	r0, [pc, #36]	; (8000478 <startVersdOS+0x68>)
 8000452:	f7ff fee1 	bl	8000218 <addTaskToListAtIndex>
 8000456:	2301      	movs	r3, #1
 8000458:	60fb      	str	r3, [r7, #12]
  \details Writes the given value to the Control Register.
  \param [in]    control  Control Register value to set
 */
__STATIC_FORCEINLINE void __set_CONTROL(uint32_t control)
{
  __ASM volatile ("MSR control, %0" : : "r" (control) : "memory");
 800045a:	68fb      	ldr	r3, [r7, #12]
 800045c:	f383 8814 	msr	CONTROL, r3
}
 8000460:	bf00      	nop

	__set_CONTROL(1 << CONTROL_nPRIV_Pos); // enter unpriviliged mode

	__asm(" wfi"); // Sleep until next SysTick
 8000462:	bf30      	wfi
}
 8000464:	bf00      	nop
 8000466:	3710      	adds	r7, #16
 8000468:	46bd      	mov	sp, r7
 800046a:	bd80      	pop	{r7, pc}
 800046c:	000186a0 	.word	0x000186a0
 8000470:	e000e010 	.word	0xe000e010
 8000474:	e000ed00 	.word	0xe000ed00
 8000478:	08000211 	.word	0x08000211

0800047c <schedule>:

// currentTask is running now, return next task to run
task * schedule()
{
 800047c:	b480      	push	{r7}
 800047e:	b085      	sub	sp, #20
 8000480:	af00      	add	r7, sp, #0
	task* tempTaskPtr = currentTask;
 8000482:	4b19      	ldr	r3, [pc, #100]	; (80004e8 <schedule+0x6c>)
 8000484:	681b      	ldr	r3, [r3, #0]
 8000486:	60fb      	str	r3, [r7, #12]
	task *idleTaskPtr = &taskList[IDLE_TASK];
 8000488:	4b18      	ldr	r3, [pc, #96]	; (80004ec <schedule+0x70>)
 800048a:	607b      	str	r3, [r7, #4]

	if (tempTaskPtr->state == RUNNING) {
 800048c:	68fb      	ldr	r3, [r7, #12]
 800048e:	7b1b      	ldrb	r3, [r3, #12]
 8000490:	2b01      	cmp	r3, #1
 8000492:	d102      	bne.n	800049a <schedule+0x1e>
		tempTaskPtr->state = READY;
 8000494:	68fb      	ldr	r3, [r7, #12]
 8000496:	2202      	movs	r2, #2
 8000498:	731a      	strb	r2, [r3, #12]
	}

	int teller=0;
 800049a:	2300      	movs	r3, #0
 800049c:	60bb      	str	r3, [r7, #8]

	//Find next ready, non idle task.
	do
	{
		tempTaskPtr++;
 800049e:	68fb      	ldr	r3, [r7, #12]
 80004a0:	3310      	adds	r3, #16
 80004a2:	60fb      	str	r3, [r7, #12]

		if( (tempTaskPtr-1) == idleTaskPtr || tempTaskPtr == idleTaskPtr)
 80004a4:	68fb      	ldr	r3, [r7, #12]
 80004a6:	3b10      	subs	r3, #16
 80004a8:	687a      	ldr	r2, [r7, #4]
 80004aa:	429a      	cmp	r2, r3
 80004ac:	d003      	beq.n	80004b6 <schedule+0x3a>
 80004ae:	68fa      	ldr	r2, [r7, #12]
 80004b0:	687b      	ldr	r3, [r7, #4]
 80004b2:	429a      	cmp	r2, r3
 80004b4:	d101      	bne.n	80004ba <schedule+0x3e>
		{
			//since idle task is the last in the list, we've reached the end
			//and need to continue at the beginning
			tempTaskPtr = &taskList[0];
 80004b6:	4b0e      	ldr	r3, [pc, #56]	; (80004f0 <schedule+0x74>)
 80004b8:	60fb      	str	r3, [r7, #12]
		}
	}while(tempTaskPtr->state != READY && teller++ <= MAX_TASKS);
 80004ba:	68fb      	ldr	r3, [r7, #12]
 80004bc:	7b1b      	ldrb	r3, [r3, #12]
 80004be:	2b02      	cmp	r3, #2
 80004c0:	d004      	beq.n	80004cc <schedule+0x50>
 80004c2:	68bb      	ldr	r3, [r7, #8]
 80004c4:	1c5a      	adds	r2, r3, #1
 80004c6:	60ba      	str	r2, [r7, #8]
 80004c8:	2b04      	cmp	r3, #4
 80004ca:	dde8      	ble.n	800049e <schedule+0x22>

	//if no task was found
	if(tempTaskPtr->state != READY)
 80004cc:	68fb      	ldr	r3, [r7, #12]
 80004ce:	7b1b      	ldrb	r3, [r3, #12]
 80004d0:	2b02      	cmp	r3, #2
 80004d2:	d001      	beq.n	80004d8 <schedule+0x5c>
	{
		//idle task
		tempTaskPtr = idleTaskPtr;
 80004d4:	687b      	ldr	r3, [r7, #4]
 80004d6:	60fb      	str	r3, [r7, #12]
	}

	return tempTaskPtr;
 80004d8:	68fb      	ldr	r3, [r7, #12]
}
 80004da:	4618      	mov	r0, r3
 80004dc:	3714      	adds	r7, #20
 80004de:	46bd      	mov	sp, r7
 80004e0:	f85d 7b04 	ldr.w	r7, [sp], #4
 80004e4:	4770      	bx	lr
 80004e6:	bf00      	nop
 80004e8:	200000d0 	.word	0x200000d0
 80004ec:	200000c0 	.word	0x200000c0
 80004f0:	20000080 	.word	0x20000080

080004f4 <SysTick_Handler>:
/*
 * Interrupt routine for the Systick timer
 * simply calls the scheduler
 * */
void SysTick_Handler(void)
{
 80004f4:	b580      	push	{r7, lr}
 80004f6:	b082      	sub	sp, #8
 80004f8:	af00      	add	r7, sp, #0
	SysTick_flag = true;
 80004fa:	4b1f      	ldr	r3, [pc, #124]	; (8000578 <SysTick_Handler+0x84>)
 80004fc:	2201      	movs	r2, #1
 80004fe:	701a      	strb	r2, [r3, #0]

	for (int i = 0; i < MAX_TASKS; i++)
 8000500:	2300      	movs	r3, #0
 8000502:	607b      	str	r3, [r7, #4]
 8000504:	e026      	b.n	8000554 <SysTick_Handler+0x60>
	{
		if (taskList[i].state == WAITING)
 8000506:	4a1d      	ldr	r2, [pc, #116]	; (800057c <SysTick_Handler+0x88>)
 8000508:	687b      	ldr	r3, [r7, #4]
 800050a:	011b      	lsls	r3, r3, #4
 800050c:	4413      	add	r3, r2
 800050e:	330c      	adds	r3, #12
 8000510:	781b      	ldrb	r3, [r3, #0]
 8000512:	2b03      	cmp	r3, #3
 8000514:	d11b      	bne.n	800054e <SysTick_Handler+0x5a>
		{
			taskList[i].counter--;
 8000516:	4a19      	ldr	r2, [pc, #100]	; (800057c <SysTick_Handler+0x88>)
 8000518:	687b      	ldr	r3, [r7, #4]
 800051a:	011b      	lsls	r3, r3, #4
 800051c:	4413      	add	r3, r2
 800051e:	3304      	adds	r3, #4
 8000520:	681b      	ldr	r3, [r3, #0]
 8000522:	1e5a      	subs	r2, r3, #1
 8000524:	4915      	ldr	r1, [pc, #84]	; (800057c <SysTick_Handler+0x88>)
 8000526:	687b      	ldr	r3, [r7, #4]
 8000528:	011b      	lsls	r3, r3, #4
 800052a:	440b      	add	r3, r1
 800052c:	3304      	adds	r3, #4
 800052e:	601a      	str	r2, [r3, #0]
			if (taskList[i].counter == 0) {
 8000530:	4a12      	ldr	r2, [pc, #72]	; (800057c <SysTick_Handler+0x88>)
 8000532:	687b      	ldr	r3, [r7, #4]
 8000534:	011b      	lsls	r3, r3, #4
 8000536:	4413      	add	r3, r2
 8000538:	3304      	adds	r3, #4
 800053a:	681b      	ldr	r3, [r3, #0]
 800053c:	2b00      	cmp	r3, #0
 800053e:	d106      	bne.n	800054e <SysTick_Handler+0x5a>
				taskList[i].state = READY;
 8000540:	4a0e      	ldr	r2, [pc, #56]	; (800057c <SysTick_Handler+0x88>)
 8000542:	687b      	ldr	r3, [r7, #4]
 8000544:	011b      	lsls	r3, r3, #4
 8000546:	4413      	add	r3, r2
 8000548:	330c      	adds	r3, #12
 800054a:	2202      	movs	r2, #2
 800054c:	701a      	strb	r2, [r3, #0]
	for (int i = 0; i < MAX_TASKS; i++)
 800054e:	687b      	ldr	r3, [r7, #4]
 8000550:	3301      	adds	r3, #1
 8000552:	607b      	str	r3, [r7, #4]
 8000554:	687b      	ldr	r3, [r7, #4]
 8000556:	2b03      	cmp	r3, #3
 8000558:	ddd5      	ble.n	8000506 <SysTick_Handler+0x12>
			}
		}
	}

	//select the next task
	taskToExecute = schedule();
 800055a:	f7ff ff8f 	bl	800047c <schedule>
 800055e:	4603      	mov	r3, r0
 8000560:	4a07      	ldr	r2, [pc, #28]	; (8000580 <SysTick_Handler+0x8c>)
 8000562:	6013      	str	r3, [r2, #0]
	//request context switch
	SCB->ICSR |= (1<<28);
 8000564:	4b07      	ldr	r3, [pc, #28]	; (8000584 <SysTick_Handler+0x90>)
 8000566:	685b      	ldr	r3, [r3, #4]
 8000568:	4a06      	ldr	r2, [pc, #24]	; (8000584 <SysTick_Handler+0x90>)
 800056a:	f043 5380 	orr.w	r3, r3, #268435456	; 0x10000000
 800056e:	6053      	str	r3, [r2, #4]
}
 8000570:	bf00      	nop
 8000572:	3708      	adds	r7, #8
 8000574:	46bd      	mov	sp, r7
 8000576:	bd80      	pop	{r7, pc}
 8000578:	200000d8 	.word	0x200000d8
 800057c:	20000080 	.word	0x20000080
 8000580:	200000d4 	.word	0x200000d4
 8000584:	e000ed00 	.word	0xe000ed00

08000588 <PendSV_Handler>:

__attribute__((naked)) // No function entry and exit code
void PendSV_Handler(void)
{
 8000588:	2400      	movs	r4, #0
  __ASM volatile ("MSR control, %0" : : "r" (control) : "memory");
 800058a:	f384 8814 	msr	CONTROL, r4
}
 800058e:	bf00      	nop
	__set_CONTROL(0); // enter priviliged mode
	//Push {R4-R11} context to PSP
	pushRegistersToCurrentPSP();
 8000590:	f7ff fe22 	bl	80001d8 <pushRegistersToCurrentPSP>
	//Save the new stack pointer after the push
	currentTask->stack = readPSP();
 8000594:	4b0c      	ldr	r3, [pc, #48]	; (80005c8 <PendSV_Handler+0x40>)
 8000596:	681c      	ldr	r4, [r3, #0]
 8000598:	f7ff fe2c 	bl	80001f4 <readPSP>
 800059c:	4603      	mov	r3, r0
 800059e:	6023      	str	r3, [r4, #0]

	currentTask = taskToExecute;
 80005a0:	4b0a      	ldr	r3, [pc, #40]	; (80005cc <PendSV_Handler+0x44>)
 80005a2:	681b      	ldr	r3, [r3, #0]
 80005a4:	4a08      	ldr	r2, [pc, #32]	; (80005c8 <PendSV_Handler+0x40>)
 80005a6:	6013      	str	r3, [r2, #0]

	//Load the new stack pointer from (new) currentTask
	writePSP(currentTask->stack);
 80005a8:	4b07      	ldr	r3, [pc, #28]	; (80005c8 <PendSV_Handler+0x40>)
 80005aa:	681b      	ldr	r3, [r3, #0]
 80005ac:	681b      	ldr	r3, [r3, #0]
 80005ae:	4618      	mov	r0, r3
 80005b0:	f7ff fe23 	bl	80001fa <writePSP>

	//Pop {R4-R11} context from PSP
	popRegistersFromCurrentPSP();
 80005b4:	f7ff fe17 	bl	80001e6 <popRegistersFromCurrentPSP>
 80005b8:	2401      	movs	r4, #1
  __ASM volatile ("MSR control, %0" : : "r" (control) : "memory");
 80005ba:	f384 8814 	msr	CONTROL, r4
}
 80005be:	bf00      	nop

	__set_CONTROL(1 << CONTROL_nPRIV_Pos); // enter unpriviliged mode
	returnToPSP();
 80005c0:	f7ff fe20 	bl	8000204 <returnToPSP>
}
 80005c4:	bf00      	nop
 80005c6:	bf00      	nop
 80005c8:	200000d0 	.word	0x200000d0
 80005cc:	200000d4 	.word	0x200000d4

080005d0 <SVC_Handler>:

/* The most simple SVC implementation
 */

void SVC_Handler(void)
{
 80005d0:	b580      	push	{r7, lr}
 80005d2:	b084      	sub	sp, #16
 80005d4:	af00      	add	r7, sp, #0
	// get pc lsb value to see svc number
	uint32_t pc = *(currentTask->stack + (15*32)); // register value for pc (or 15*4)
 80005d6:	4b1d      	ldr	r3, [pc, #116]	; (800064c <SVC_Handler+0x7c>)
 80005d8:	681b      	ldr	r3, [r3, #0]
 80005da:	681b      	ldr	r3, [r3, #0]
 80005dc:	f503 63f0 	add.w	r3, r3, #1920	; 0x780
 80005e0:	681b      	ldr	r3, [r3, #0]
 80005e2:	60fb      	str	r3, [r7, #12]
	if ((pc & 1) == 1) { // svc call was 1
 80005e4:	68fb      	ldr	r3, [r7, #12]
 80005e6:	f003 0301 	and.w	r3, r3, #1
 80005ea:	2b00      	cmp	r3, #0
 80005ec:	d00b      	beq.n	8000606 <SVC_Handler+0x36>
		taskToExecute = schedule();
 80005ee:	f7ff ff45 	bl	800047c <schedule>
 80005f2:	4603      	mov	r3, r0
 80005f4:	4a16      	ldr	r2, [pc, #88]	; (8000650 <SVC_Handler+0x80>)
 80005f6:	6013      	str	r3, [r2, #0]
		SCB->ICSR |= (1<<28);
 80005f8:	4b16      	ldr	r3, [pc, #88]	; (8000654 <SVC_Handler+0x84>)
 80005fa:	685b      	ldr	r3, [r3, #4]
 80005fc:	4a15      	ldr	r2, [pc, #84]	; (8000654 <SVC_Handler+0x84>)
 80005fe:	f043 5380 	orr.w	r3, r3, #268435456	; 0x10000000
 8000602:	6053      	str	r3, [r2, #4]
 8000604:	e01e      	b.n	8000644 <SVC_Handler+0x74>

	}
	else { // svc call was 2
		// change systick value
		// use task stack R0 to find parameter
		uint32_t r0 = *(currentTask->stack + (0*32)); // get r0 (or 0*32)
 8000606:	4b11      	ldr	r3, [pc, #68]	; (800064c <SVC_Handler+0x7c>)
 8000608:	681b      	ldr	r3, [r3, #0]
 800060a:	681b      	ldr	r3, [r3, #0]
 800060c:	681b      	ldr	r3, [r3, #0]
 800060e:	60bb      	str	r3, [r7, #8]
		if (r0 < 1 || r0 > 10)
 8000610:	68bb      	ldr	r3, [r7, #8]
 8000612:	2b00      	cmp	r3, #0
 8000614:	d015      	beq.n	8000642 <SVC_Handler+0x72>
 8000616:	68bb      	ldr	r3, [r7, #8]
 8000618:	2b0a      	cmp	r3, #10
 800061a:	d812      	bhi.n	8000642 <SVC_Handler+0x72>
 800061c:	2300      	movs	r3, #0
 800061e:	603b      	str	r3, [r7, #0]
  __ASM volatile ("MSR control, %0" : : "r" (control) : "memory");
 8000620:	683b      	ldr	r3, [r7, #0]
 8000622:	f383 8814 	msr	CONTROL, r3
}
 8000626:	bf00      	nop
		{
			return;
		} else {

			__set_CONTROL(0); // enter priviliged mode
			SysTick->LOAD = r0 * CLOCK_FREQ_IN_KHz - 1;
 8000628:	68bb      	ldr	r3, [r7, #8]
 800062a:	4a0b      	ldr	r2, [pc, #44]	; (8000658 <SVC_Handler+0x88>)
 800062c:	fb02 f303 	mul.w	r3, r2, r3
 8000630:	4a0a      	ldr	r2, [pc, #40]	; (800065c <SVC_Handler+0x8c>)
 8000632:	3b01      	subs	r3, #1
 8000634:	6053      	str	r3, [r2, #4]
 8000636:	2301      	movs	r3, #1
 8000638:	607b      	str	r3, [r7, #4]
  __ASM volatile ("MSR control, %0" : : "r" (control) : "memory");
 800063a:	687b      	ldr	r3, [r7, #4]
 800063c:	f383 8814 	msr	CONTROL, r3
}
 8000640:	e000      	b.n	8000644 <SVC_Handler+0x74>
			return;
 8000642:	bf00      	nop
			__set_CONTROL(1 << CONTROL_nPRIV_Pos); // enter unpriviliged mode
		}
	}
}
 8000644:	3710      	adds	r7, #16
 8000646:	46bd      	mov	sp, r7
 8000648:	bd80      	pop	{r7, pc}
 800064a:	bf00      	nop
 800064c:	200000d0 	.word	0x200000d0
 8000650:	200000d4 	.word	0x200000d4
 8000654:	e000ed00 	.word	0xe000ed00
 8000658:	000186a0 	.word	0x000186a0
 800065c:	e000e010 	.word	0xe000e010

08000660 <taskYield>:

//Call Super Visor
void taskYield(void)
{
 8000660:	b480      	push	{r7}
 8000662:	af00      	add	r7, sp, #0
	asm("	svc #1");
 8000664:	df01      	svc	1

}
 8000666:	bf00      	nop
 8000668:	46bd      	mov	sp, r7
 800066a:	f85d 7b04 	ldr.w	r7, [sp], #4
 800066e:	4770      	bx	lr

08000670 <requestDelay>:

void requestDelay(uint32_t ticks)
{
 8000670:	b580      	push	{r7, lr}
 8000672:	b082      	sub	sp, #8
 8000674:	af00      	add	r7, sp, #0
 8000676:	6078      	str	r0, [r7, #4]
	currentTask->counter = ticks;
 8000678:	4b06      	ldr	r3, [pc, #24]	; (8000694 <requestDelay+0x24>)
 800067a:	681b      	ldr	r3, [r3, #0]
 800067c:	687a      	ldr	r2, [r7, #4]
 800067e:	605a      	str	r2, [r3, #4]
	currentTask->state = WAITING;
 8000680:	4b04      	ldr	r3, [pc, #16]	; (8000694 <requestDelay+0x24>)
 8000682:	681b      	ldr	r3, [r3, #0]
 8000684:	2203      	movs	r2, #3
 8000686:	731a      	strb	r2, [r3, #12]
	taskYield();
 8000688:	f7ff ffea 	bl	8000660 <taskYield>
}
 800068c:	bf00      	nop
 800068e:	3708      	adds	r7, #8
 8000690:	46bd      	mov	sp, r7
 8000692:	bd80      	pop	{r7, pc}
 8000694:	200000d0 	.word	0x200000d0

08000698 <changeSysTick>:

void changeSysTick(uint16_t newPeriodIn_ms)
{
 8000698:	b480      	push	{r7}
 800069a:	b083      	sub	sp, #12
 800069c:	af00      	add	r7, sp, #0
 800069e:	4603      	mov	r3, r0
 80006a0:	80fb      	strh	r3, [r7, #6]
	asm("	svc #2");
 80006a2:	df02      	svc	2

}
 80006a4:	bf00      	nop
 80006a6:	370c      	adds	r7, #12
 80006a8:	46bd      	mov	sp, r7
 80006aa:	f85d 7b04 	ldr.w	r7, [sp], #4
 80006ae:	4770      	bx	lr

080006b0 <delay_nonblocking>:
		SysTick_flag = false;
		ticks--;
	}
}

void delay_nonblocking (unsigned int ticks) {
 80006b0:	b580      	push	{r7, lr}
 80006b2:	b082      	sub	sp, #8
 80006b4:	af00      	add	r7, sp, #0
 80006b6:	6078      	str	r0, [r7, #4]

	// ask os to not be scheduled for the amount of ticks (use counter)
	requestDelay(ticks);
 80006b8:	6878      	ldr	r0, [r7, #4]
 80006ba:	f7ff ffd9 	bl	8000670 <requestDelay>
}
 80006be:	bf00      	nop
 80006c0:	3708      	adds	r7, #8
 80006c2:	46bd      	mov	sp, r7
 80006c4:	bd80      	pop	{r7, pc}
	...

080006c8 <toggleGreen>:

void toggleGreen(void)
{
 80006c8:	b580      	push	{r7, lr}
 80006ca:	af00      	add	r7, sp, #0
	while(1) {
    	GPIOD->ODR ^= 1 << GREEN;
 80006cc:	4b04      	ldr	r3, [pc, #16]	; (80006e0 <toggleGreen+0x18>)
 80006ce:	695b      	ldr	r3, [r3, #20]
 80006d0:	4a03      	ldr	r2, [pc, #12]	; (80006e0 <toggleGreen+0x18>)
 80006d2:	f483 5380 	eor.w	r3, r3, #4096	; 0x1000
 80006d6:	6153      	str	r3, [r2, #20]
    	delay_nonblocking(100);
 80006d8:	2064      	movs	r0, #100	; 0x64
 80006da:	f7ff ffe9 	bl	80006b0 <delay_nonblocking>
    	GPIOD->ODR ^= 1 << GREEN;
 80006de:	e7f5      	b.n	80006cc <toggleGreen+0x4>
 80006e0:	40020c00 	.word	0x40020c00

080006e4 <toggleOrange>:
	}
}

void toggleOrange(void)
{
 80006e4:	b580      	push	{r7, lr}
 80006e6:	af00      	add	r7, sp, #0
	while(1) {
    	GPIOD->ODR ^= 1 << ORANGE;
 80006e8:	4b04      	ldr	r3, [pc, #16]	; (80006fc <toggleOrange+0x18>)
 80006ea:	695b      	ldr	r3, [r3, #20]
 80006ec:	4a03      	ldr	r2, [pc, #12]	; (80006fc <toggleOrange+0x18>)
 80006ee:	f483 5300 	eor.w	r3, r3, #8192	; 0x2000
 80006f2:	6153      	str	r3, [r2, #20]
    	delay_nonblocking(200);
 80006f4:	20c8      	movs	r0, #200	; 0xc8
 80006f6:	f7ff ffdb 	bl	80006b0 <delay_nonblocking>
    	GPIOD->ODR ^= 1 << ORANGE;
 80006fa:	e7f5      	b.n	80006e8 <toggleOrange+0x4>
 80006fc:	40020c00 	.word	0x40020c00

08000700 <toggleRed>:
	}
}

void toggleRed(void)
{
 8000700:	b580      	push	{r7, lr}
 8000702:	af00      	add	r7, sp, #0
	while (1) {
    	GPIOD->ODR ^= 1 << RED;
 8000704:	4b05      	ldr	r3, [pc, #20]	; (800071c <toggleRed+0x1c>)
 8000706:	695b      	ldr	r3, [r3, #20]
 8000708:	4a04      	ldr	r2, [pc, #16]	; (800071c <toggleRed+0x1c>)
 800070a:	f483 4380 	eor.w	r3, r3, #16384	; 0x4000
 800070e:	6153      	str	r3, [r2, #20]
    	delay_nonblocking(400);
 8000710:	f44f 70c8 	mov.w	r0, #400	; 0x190
 8000714:	f7ff ffcc 	bl	80006b0 <delay_nonblocking>
    	GPIOD->ODR ^= 1 << RED;
 8000718:	e7f4      	b.n	8000704 <toggleRed+0x4>
 800071a:	bf00      	nop
 800071c:	40020c00 	.word	0x40020c00

08000720 <toggleBlue>:
	}
}

void toggleBlue(void)
{
 8000720:	b580      	push	{r7, lr}
 8000722:	af00      	add	r7, sp, #0
	while(1) {
    	GPIOD->ODR ^= 1 << BLUE;
 8000724:	4b06      	ldr	r3, [pc, #24]	; (8000740 <toggleBlue+0x20>)
 8000726:	695b      	ldr	r3, [r3, #20]
 8000728:	4a05      	ldr	r2, [pc, #20]	; (8000740 <toggleBlue+0x20>)
 800072a:	f483 4300 	eor.w	r3, r3, #32768	; 0x8000
 800072e:	6153      	str	r3, [r2, #20]
    	changeSysTick(8);
 8000730:	2008      	movs	r0, #8
 8000732:	f7ff ffb1 	bl	8000698 <changeSysTick>
    	delay_nonblocking(800);
 8000736:	f44f 7048 	mov.w	r0, #800	; 0x320
 800073a:	f7ff ffb9 	bl	80006b0 <delay_nonblocking>
    	GPIOD->ODR ^= 1 << BLUE;
 800073e:	e7f1      	b.n	8000724 <toggleBlue+0x4>
 8000740:	40020c00 	.word	0x40020c00

08000744 <main>:
	}
}

int main(void)
{
 8000744:	b580      	push	{r7, lr}
 8000746:	af00      	add	r7, sp, #0
	// Use HSE (8 MHz)
	// Enable HSE
	RCC->CR |= RCC_CR_HSEON;
 8000748:	4b38      	ldr	r3, [pc, #224]	; (800082c <main+0xe8>)
 800074a:	681b      	ldr	r3, [r3, #0]
 800074c:	4a37      	ldr	r2, [pc, #220]	; (800082c <main+0xe8>)
 800074e:	f443 3380 	orr.w	r3, r3, #65536	; 0x10000
 8000752:	6013      	str	r3, [r2, #0]
	// Wait until HSE is stable
	while ((RCC->CR & RCC_CR_HSERDY) == 0);
 8000754:	bf00      	nop
 8000756:	4b35      	ldr	r3, [pc, #212]	; (800082c <main+0xe8>)
 8000758:	681b      	ldr	r3, [r3, #0]
 800075a:	f403 3300 	and.w	r3, r3, #131072	; 0x20000
 800075e:	2b00      	cmp	r3, #0
 8000760:	d0f9      	beq.n	8000756 <main+0x12>

	// Power interface clock enable
	RCC->APB1ENR |= RCC_APB1ENR_PWREN;
 8000762:	4b32      	ldr	r3, [pc, #200]	; (800082c <main+0xe8>)
 8000764:	6c1b      	ldr	r3, [r3, #64]	; 0x40
 8000766:	4a31      	ldr	r2, [pc, #196]	; (800082c <main+0xe8>)
 8000768:	f043 5380 	orr.w	r3, r3, #268435456	; 0x10000000
 800076c:	6413      	str	r3, [r2, #64]	; 0x40
	// Regulator voltage scaling output selection Scale 1 mode <= 100 MHz
	PWR->CR |= PWR_CR_VOS;
 800076e:	4b30      	ldr	r3, [pc, #192]	; (8000830 <main+0xec>)
 8000770:	681b      	ldr	r3, [r3, #0]
 8000772:	4a2f      	ldr	r2, [pc, #188]	; (8000830 <main+0xec>)
 8000774:	f443 4340 	orr.w	r3, r3, #49152	; 0xc000
 8000778:	6013      	str	r3, [r2, #0]
	// Use 3 wait states when reading Flash at 100 MHz.
	FLASH->ACR = FLASH_ACR_LATENCY_3WS;
 800077a:	4b2e      	ldr	r3, [pc, #184]	; (8000834 <main+0xf0>)
 800077c:	2203      	movs	r2, #3
 800077e:	601a      	str	r2, [r3, #0]
	// Wait until 3 wait states are used
	while ((FLASH->ACR & FLASH_ACR_LATENCY_3WS) == 0);
 8000780:	bf00      	nop
 8000782:	4b2c      	ldr	r3, [pc, #176]	; (8000834 <main+0xf0>)
 8000784:	681b      	ldr	r3, [r3, #0]
 8000786:	f003 0303 	and.w	r3, r3, #3
 800078a:	2b00      	cmp	r3, #0
 800078c:	d0f9      	beq.n	8000782 <main+0x3e>
	// Enable flash prefetch buffer, instruction and data cache
	FLASH->ACR |= FLASH_ACR_PRFTEN | FLASH_ACR_ICEN | FLASH_ACR_DCEN;
 800078e:	4b29      	ldr	r3, [pc, #164]	; (8000834 <main+0xf0>)
 8000790:	681b      	ldr	r3, [r3, #0]
 8000792:	4a28      	ldr	r2, [pc, #160]	; (8000834 <main+0xf0>)
 8000794:	f443 63e0 	orr.w	r3, r3, #1792	; 0x700
 8000798:	6013      	str	r3, [r2, #0]

	// Use PLL to generate 100 MHz clock
	// PLL output = 8 / M * N / P: M = 4, N = 100, P = 2 to generate 100 MHz
	RCC->PLLCFGR = 0x20000000
 800079a:	4b24      	ldr	r3, [pc, #144]	; (800082c <main+0xe8>)
 800079c:	4a26      	ldr	r2, [pc, #152]	; (8000838 <main+0xf4>)
 800079e:	605a      	str	r2, [r3, #4]
		| RCC_PLLCFGR_PLLSRC_HSE
		| (0 << RCC_PLLCFGR_PLLP_Pos)
		| (100 << RCC_PLLCFGR_PLLN_Pos)
		| (4 << RCC_PLLCFGR_PLLM_Pos);
	// Enable PLL
	RCC->CR |= RCC_CR_PLLON;
 80007a0:	4b22      	ldr	r3, [pc, #136]	; (800082c <main+0xe8>)
 80007a2:	681b      	ldr	r3, [r3, #0]
 80007a4:	4a21      	ldr	r2, [pc, #132]	; (800082c <main+0xe8>)
 80007a6:	f043 7380 	orr.w	r3, r3, #16777216	; 0x1000000
 80007aa:	6013      	str	r3, [r2, #0]
	// Wait until PLL is locked
	while ((RCC->CR & RCC_CR_PLLRDY) == 0);
 80007ac:	bf00      	nop
 80007ae:	4b1f      	ldr	r3, [pc, #124]	; (800082c <main+0xe8>)
 80007b0:	681b      	ldr	r3, [r3, #0]
 80007b2:	f003 7300 	and.w	r3, r3, #33554432	; 0x2000000
 80007b6:	2b00      	cmp	r3, #0
 80007b8:	d0f9      	beq.n	80007ae <main+0x6a>
	// Select PLL as the system clock. AHB clock divided by 2.
	RCC->CFGR |= RCC_CFGR_SW_PLL | RCC_CFGR_PPRE1_DIV2;
 80007ba:	4b1c      	ldr	r3, [pc, #112]	; (800082c <main+0xe8>)
 80007bc:	689b      	ldr	r3, [r3, #8]
 80007be:	4a1b      	ldr	r2, [pc, #108]	; (800082c <main+0xe8>)
 80007c0:	f443 5380 	orr.w	r3, r3, #4096	; 0x1000
 80007c4:	f043 0302 	orr.w	r3, r3, #2
 80007c8:	6093      	str	r3, [r2, #8]
	// Wait until PLL used as the system clock
	while ((RCC->CFGR & RCC_CFGR_SWS_PLL) == 0);
 80007ca:	bf00      	nop
 80007cc:	4b17      	ldr	r3, [pc, #92]	; (800082c <main+0xe8>)
 80007ce:	689b      	ldr	r3, [r3, #8]
 80007d0:	f003 0308 	and.w	r3, r3, #8
 80007d4:	2b00      	cmp	r3, #0
 80007d6:	d0f9      	beq.n	80007cc <main+0x88>
	// Disable HSI
	RCC->CR &= ~RCC_CR_HSION;
 80007d8:	4b14      	ldr	r3, [pc, #80]	; (800082c <main+0xe8>)
 80007da:	681b      	ldr	r3, [r3, #0]
 80007dc:	4a13      	ldr	r2, [pc, #76]	; (800082c <main+0xe8>)
 80007de:	f023 0301 	bic.w	r3, r3, #1
 80007e2:	6013      	str	r3, [r2, #0]

	// GPIO Port D Clock Enable
	RCC->AHB1ENR |= RCC_AHB1ENR_GPIODEN;
 80007e4:	4b11      	ldr	r3, [pc, #68]	; (800082c <main+0xe8>)
 80007e6:	6b1b      	ldr	r3, [r3, #48]	; 0x30
 80007e8:	4a10      	ldr	r2, [pc, #64]	; (800082c <main+0xe8>)
 80007ea:	f043 0308 	orr.w	r3, r3, #8
 80007ee:	6313      	str	r3, [r2, #48]	; 0x30
	// GPIO Port D led pins Push/Pull Output
	GPIOD->MODER |= 1 << 2 * GREEN | 1 << 2 * ORANGE | 1 << 2 * RED | 1 << 2 * BLUE;
 80007f0:	4b12      	ldr	r3, [pc, #72]	; (800083c <main+0xf8>)
 80007f2:	681b      	ldr	r3, [r3, #0]
 80007f4:	4a11      	ldr	r2, [pc, #68]	; (800083c <main+0xf8>)
 80007f6:	f043 43aa 	orr.w	r3, r3, #1426063360	; 0x55000000
 80007fa:	6013      	str	r3, [r2, #0]


    // Create tasks. Provide fpointer, stacksize, and priority:
	addTaskToList(toggleGreen, 128, 2);
 80007fc:	2202      	movs	r2, #2
 80007fe:	2180      	movs	r1, #128	; 0x80
 8000800:	480f      	ldr	r0, [pc, #60]	; (8000840 <main+0xfc>)
 8000802:	f7ff fddf 	bl	80003c4 <addTaskToList>
    addTaskToList(toggleOrange, 128, 2);
 8000806:	2202      	movs	r2, #2
 8000808:	2180      	movs	r1, #128	; 0x80
 800080a:	480e      	ldr	r0, [pc, #56]	; (8000844 <main+0x100>)
 800080c:	f7ff fdda 	bl	80003c4 <addTaskToList>
    addTaskToList(toggleRed, 128, 2);
 8000810:	2202      	movs	r2, #2
 8000812:	2180      	movs	r1, #128	; 0x80
 8000814:	480c      	ldr	r0, [pc, #48]	; (8000848 <main+0x104>)
 8000816:	f7ff fdd5 	bl	80003c4 <addTaskToList>
    addTaskToList(toggleBlue, 128, 2);
 800081a:	2202      	movs	r2, #2
 800081c:	2180      	movs	r1, #128	; 0x80
 800081e:	480b      	ldr	r0, [pc, #44]	; (800084c <main+0x108>)
 8000820:	f7ff fdd0 	bl	80003c4 <addTaskToList>

	// Start VersdOS with 1 ms sysTick
	startVersdOS(1);
 8000824:	2001      	movs	r0, #1
 8000826:	f7ff fdf3 	bl	8000410 <startVersdOS>

	while(1);
 800082a:	e7fe      	b.n	800082a <main+0xe6>
 800082c:	40023800 	.word	0x40023800
 8000830:	40007000 	.word	0x40007000
 8000834:	40023c00 	.word	0x40023c00
 8000838:	20401904 	.word	0x20401904
 800083c:	40020c00 	.word	0x40020c00
 8000840:	080006c9 	.word	0x080006c9
 8000844:	080006e5 	.word	0x080006e5
 8000848:	08000701 	.word	0x08000701
 800084c:	08000721 	.word	0x08000721

08000850 <Reset_Handler>:
 8000850:	f8df d030 	ldr.w	sp, [pc, #48]	; 8000884 <LoopFillZerobss+0xe>
 8000854:	480c      	ldr	r0, [pc, #48]	; (8000888 <LoopFillZerobss+0x12>)
 8000856:	490d      	ldr	r1, [pc, #52]	; (800088c <LoopFillZerobss+0x16>)
 8000858:	4a0d      	ldr	r2, [pc, #52]	; (8000890 <LoopFillZerobss+0x1a>)
 800085a:	2300      	movs	r3, #0
 800085c:	e002      	b.n	8000864 <LoopCopyDataInit>

0800085e <CopyDataInit>:
 800085e:	58d4      	ldr	r4, [r2, r3]
 8000860:	50c4      	str	r4, [r0, r3]
 8000862:	3304      	adds	r3, #4

08000864 <LoopCopyDataInit>:
 8000864:	18c4      	adds	r4, r0, r3
 8000866:	428c      	cmp	r4, r1
 8000868:	d3f9      	bcc.n	800085e <CopyDataInit>
 800086a:	4a0a      	ldr	r2, [pc, #40]	; (8000894 <LoopFillZerobss+0x1e>)
 800086c:	4c0a      	ldr	r4, [pc, #40]	; (8000898 <LoopFillZerobss+0x22>)
 800086e:	2300      	movs	r3, #0
 8000870:	e001      	b.n	8000876 <LoopFillZerobss>

08000872 <FillZerobss>:
 8000872:	6013      	str	r3, [r2, #0]
 8000874:	3204      	adds	r2, #4

08000876 <LoopFillZerobss>:
 8000876:	42a2      	cmp	r2, r4
 8000878:	d3fb      	bcc.n	8000872 <FillZerobss>
 800087a:	f000 f811 	bl	80008a0 <__libc_init_array>
 800087e:	f7ff ff61 	bl	8000744 <main>
 8000882:	4770      	bx	lr
 8000884:	20020000 	.word	0x20020000
 8000888:	20000000 	.word	0x20000000
 800088c:	20000064 	.word	0x20000064
 8000890:	08000a98 	.word	0x08000a98
 8000894:	20000064 	.word	0x20000064
 8000898:	200000f0 	.word	0x200000f0

0800089c <ADC_IRQHandler>:
 800089c:	e7fe      	b.n	800089c <ADC_IRQHandler>
	...

080008a0 <__libc_init_array>:
 80008a0:	b570      	push	{r4, r5, r6, lr}
 80008a2:	4d0d      	ldr	r5, [pc, #52]	; (80008d8 <__libc_init_array+0x38>)
 80008a4:	4c0d      	ldr	r4, [pc, #52]	; (80008dc <__libc_init_array+0x3c>)
 80008a6:	1b64      	subs	r4, r4, r5
 80008a8:	10a4      	asrs	r4, r4, #2
 80008aa:	2600      	movs	r6, #0
 80008ac:	42a6      	cmp	r6, r4
 80008ae:	d109      	bne.n	80008c4 <__libc_init_array+0x24>
 80008b0:	4d0b      	ldr	r5, [pc, #44]	; (80008e0 <__libc_init_array+0x40>)
 80008b2:	4c0c      	ldr	r4, [pc, #48]	; (80008e4 <__libc_init_array+0x44>)
 80008b4:	f000 f8e0 	bl	8000a78 <_init>
 80008b8:	1b64      	subs	r4, r4, r5
 80008ba:	10a4      	asrs	r4, r4, #2
 80008bc:	2600      	movs	r6, #0
 80008be:	42a6      	cmp	r6, r4
 80008c0:	d105      	bne.n	80008ce <__libc_init_array+0x2e>
 80008c2:	bd70      	pop	{r4, r5, r6, pc}
 80008c4:	f855 3b04 	ldr.w	r3, [r5], #4
 80008c8:	4798      	blx	r3
 80008ca:	3601      	adds	r6, #1
 80008cc:	e7ee      	b.n	80008ac <__libc_init_array+0xc>
 80008ce:	f855 3b04 	ldr.w	r3, [r5], #4
 80008d2:	4798      	blx	r3
 80008d4:	3601      	adds	r6, #1
 80008d6:	e7f2      	b.n	80008be <__libc_init_array+0x1e>
 80008d8:	08000a90 	.word	0x08000a90
 80008dc:	08000a90 	.word	0x08000a90
 80008e0:	08000a90 	.word	0x08000a90
 80008e4:	08000a94 	.word	0x08000a94

080008e8 <malloc>:
 80008e8:	4b02      	ldr	r3, [pc, #8]	; (80008f4 <malloc+0xc>)
 80008ea:	4601      	mov	r1, r0
 80008ec:	6818      	ldr	r0, [r3, #0]
 80008ee:	f000 b823 	b.w	8000938 <_malloc_r>
 80008f2:	bf00      	nop
 80008f4:	20000000 	.word	0x20000000

080008f8 <sbrk_aligned>:
 80008f8:	b570      	push	{r4, r5, r6, lr}
 80008fa:	4e0e      	ldr	r6, [pc, #56]	; (8000934 <sbrk_aligned+0x3c>)
 80008fc:	460c      	mov	r4, r1
 80008fe:	6831      	ldr	r1, [r6, #0]
 8000900:	4605      	mov	r5, r0
 8000902:	b911      	cbnz	r1, 800090a <sbrk_aligned+0x12>
 8000904:	f000 f88c 	bl	8000a20 <_sbrk_r>
 8000908:	6030      	str	r0, [r6, #0]
 800090a:	4621      	mov	r1, r4
 800090c:	4628      	mov	r0, r5
 800090e:	f000 f887 	bl	8000a20 <_sbrk_r>
 8000912:	1c43      	adds	r3, r0, #1
 8000914:	d00a      	beq.n	800092c <sbrk_aligned+0x34>
 8000916:	1cc4      	adds	r4, r0, #3
 8000918:	f024 0403 	bic.w	r4, r4, #3
 800091c:	42a0      	cmp	r0, r4
 800091e:	d007      	beq.n	8000930 <sbrk_aligned+0x38>
 8000920:	1a21      	subs	r1, r4, r0
 8000922:	4628      	mov	r0, r5
 8000924:	f000 f87c 	bl	8000a20 <_sbrk_r>
 8000928:	3001      	adds	r0, #1
 800092a:	d101      	bne.n	8000930 <sbrk_aligned+0x38>
 800092c:	f04f 34ff 	mov.w	r4, #4294967295	; 0xffffffff
 8000930:	4620      	mov	r0, r4
 8000932:	bd70      	pop	{r4, r5, r6, pc}
 8000934:	200000e0 	.word	0x200000e0

08000938 <_malloc_r>:
 8000938:	e92d 41f0 	stmdb	sp!, {r4, r5, r6, r7, r8, lr}
 800093c:	1ccd      	adds	r5, r1, #3
 800093e:	f025 0503 	bic.w	r5, r5, #3
 8000942:	3508      	adds	r5, #8
 8000944:	2d0c      	cmp	r5, #12
 8000946:	bf38      	it	cc
 8000948:	250c      	movcc	r5, #12
 800094a:	2d00      	cmp	r5, #0
 800094c:	4607      	mov	r7, r0
 800094e:	db01      	blt.n	8000954 <_malloc_r+0x1c>
 8000950:	42a9      	cmp	r1, r5
 8000952:	d905      	bls.n	8000960 <_malloc_r+0x28>
 8000954:	230c      	movs	r3, #12
 8000956:	603b      	str	r3, [r7, #0]
 8000958:	2600      	movs	r6, #0
 800095a:	4630      	mov	r0, r6
 800095c:	e8bd 81f0 	ldmia.w	sp!, {r4, r5, r6, r7, r8, pc}
 8000960:	4e2e      	ldr	r6, [pc, #184]	; (8000a1c <_malloc_r+0xe4>)
 8000962:	f000 f86d 	bl	8000a40 <__malloc_lock>
 8000966:	6833      	ldr	r3, [r6, #0]
 8000968:	461c      	mov	r4, r3
 800096a:	bb34      	cbnz	r4, 80009ba <_malloc_r+0x82>
 800096c:	4629      	mov	r1, r5
 800096e:	4638      	mov	r0, r7
 8000970:	f7ff ffc2 	bl	80008f8 <sbrk_aligned>
 8000974:	1c43      	adds	r3, r0, #1
 8000976:	4604      	mov	r4, r0
 8000978:	d14d      	bne.n	8000a16 <_malloc_r+0xde>
 800097a:	6834      	ldr	r4, [r6, #0]
 800097c:	4626      	mov	r6, r4
 800097e:	2e00      	cmp	r6, #0
 8000980:	d140      	bne.n	8000a04 <_malloc_r+0xcc>
 8000982:	6823      	ldr	r3, [r4, #0]
 8000984:	4631      	mov	r1, r6
 8000986:	4638      	mov	r0, r7
 8000988:	eb04 0803 	add.w	r8, r4, r3
 800098c:	f000 f848 	bl	8000a20 <_sbrk_r>
 8000990:	4580      	cmp	r8, r0
 8000992:	d13a      	bne.n	8000a0a <_malloc_r+0xd2>
 8000994:	6821      	ldr	r1, [r4, #0]
 8000996:	3503      	adds	r5, #3
 8000998:	1a6d      	subs	r5, r5, r1
 800099a:	f025 0503 	bic.w	r5, r5, #3
 800099e:	3508      	adds	r5, #8
 80009a0:	2d0c      	cmp	r5, #12
 80009a2:	bf38      	it	cc
 80009a4:	250c      	movcc	r5, #12
 80009a6:	4629      	mov	r1, r5
 80009a8:	4638      	mov	r0, r7
 80009aa:	f7ff ffa5 	bl	80008f8 <sbrk_aligned>
 80009ae:	3001      	adds	r0, #1
 80009b0:	d02b      	beq.n	8000a0a <_malloc_r+0xd2>
 80009b2:	6823      	ldr	r3, [r4, #0]
 80009b4:	442b      	add	r3, r5
 80009b6:	6023      	str	r3, [r4, #0]
 80009b8:	e00e      	b.n	80009d8 <_malloc_r+0xa0>
 80009ba:	6822      	ldr	r2, [r4, #0]
 80009bc:	1b52      	subs	r2, r2, r5
 80009be:	d41e      	bmi.n	80009fe <_malloc_r+0xc6>
 80009c0:	2a0b      	cmp	r2, #11
 80009c2:	d916      	bls.n	80009f2 <_malloc_r+0xba>
 80009c4:	1961      	adds	r1, r4, r5
 80009c6:	42a3      	cmp	r3, r4
 80009c8:	6025      	str	r5, [r4, #0]
 80009ca:	bf18      	it	ne
 80009cc:	6059      	strne	r1, [r3, #4]
 80009ce:	6863      	ldr	r3, [r4, #4]
 80009d0:	bf08      	it	eq
 80009d2:	6031      	streq	r1, [r6, #0]
 80009d4:	5162      	str	r2, [r4, r5]
 80009d6:	604b      	str	r3, [r1, #4]
 80009d8:	4638      	mov	r0, r7
 80009da:	f104 060b 	add.w	r6, r4, #11
 80009de:	f000 f835 	bl	8000a4c <__malloc_unlock>
 80009e2:	f026 0607 	bic.w	r6, r6, #7
 80009e6:	1d23      	adds	r3, r4, #4
 80009e8:	1af2      	subs	r2, r6, r3
 80009ea:	d0b6      	beq.n	800095a <_malloc_r+0x22>
 80009ec:	1b9b      	subs	r3, r3, r6
 80009ee:	50a3      	str	r3, [r4, r2]
 80009f0:	e7b3      	b.n	800095a <_malloc_r+0x22>
 80009f2:	6862      	ldr	r2, [r4, #4]
 80009f4:	42a3      	cmp	r3, r4
 80009f6:	bf0c      	ite	eq
 80009f8:	6032      	streq	r2, [r6, #0]
 80009fa:	605a      	strne	r2, [r3, #4]
 80009fc:	e7ec      	b.n	80009d8 <_malloc_r+0xa0>
 80009fe:	4623      	mov	r3, r4
 8000a00:	6864      	ldr	r4, [r4, #4]
 8000a02:	e7b2      	b.n	800096a <_malloc_r+0x32>
 8000a04:	4634      	mov	r4, r6
 8000a06:	6876      	ldr	r6, [r6, #4]
 8000a08:	e7b9      	b.n	800097e <_malloc_r+0x46>
 8000a0a:	230c      	movs	r3, #12
 8000a0c:	603b      	str	r3, [r7, #0]
 8000a0e:	4638      	mov	r0, r7
 8000a10:	f000 f81c 	bl	8000a4c <__malloc_unlock>
 8000a14:	e7a1      	b.n	800095a <_malloc_r+0x22>
 8000a16:	6025      	str	r5, [r4, #0]
 8000a18:	e7de      	b.n	80009d8 <_malloc_r+0xa0>
 8000a1a:	bf00      	nop
 8000a1c:	200000dc 	.word	0x200000dc

08000a20 <_sbrk_r>:
 8000a20:	b538      	push	{r3, r4, r5, lr}
 8000a22:	4d06      	ldr	r5, [pc, #24]	; (8000a3c <_sbrk_r+0x1c>)
 8000a24:	2300      	movs	r3, #0
 8000a26:	4604      	mov	r4, r0
 8000a28:	4608      	mov	r0, r1
 8000a2a:	602b      	str	r3, [r5, #0]
 8000a2c:	f000 f816 	bl	8000a5c <_sbrk>
 8000a30:	1c43      	adds	r3, r0, #1
 8000a32:	d102      	bne.n	8000a3a <_sbrk_r+0x1a>
 8000a34:	682b      	ldr	r3, [r5, #0]
 8000a36:	b103      	cbz	r3, 8000a3a <_sbrk_r+0x1a>
 8000a38:	6023      	str	r3, [r4, #0]
 8000a3a:	bd38      	pop	{r3, r4, r5, pc}
 8000a3c:	200000e4 	.word	0x200000e4

08000a40 <__malloc_lock>:
 8000a40:	4801      	ldr	r0, [pc, #4]	; (8000a48 <__malloc_lock+0x8>)
 8000a42:	f000 b809 	b.w	8000a58 <__retarget_lock_acquire_recursive>
 8000a46:	bf00      	nop
 8000a48:	200000e8 	.word	0x200000e8

08000a4c <__malloc_unlock>:
 8000a4c:	4801      	ldr	r0, [pc, #4]	; (8000a54 <__malloc_unlock+0x8>)
 8000a4e:	f000 b804 	b.w	8000a5a <__retarget_lock_release_recursive>
 8000a52:	bf00      	nop
 8000a54:	200000e8 	.word	0x200000e8

08000a58 <__retarget_lock_acquire_recursive>:
 8000a58:	4770      	bx	lr

08000a5a <__retarget_lock_release_recursive>:
 8000a5a:	4770      	bx	lr

08000a5c <_sbrk>:
 8000a5c:	4a04      	ldr	r2, [pc, #16]	; (8000a70 <_sbrk+0x14>)
 8000a5e:	6811      	ldr	r1, [r2, #0]
 8000a60:	4603      	mov	r3, r0
 8000a62:	b909      	cbnz	r1, 8000a68 <_sbrk+0xc>
 8000a64:	4903      	ldr	r1, [pc, #12]	; (8000a74 <_sbrk+0x18>)
 8000a66:	6011      	str	r1, [r2, #0]
 8000a68:	6810      	ldr	r0, [r2, #0]
 8000a6a:	4403      	add	r3, r0
 8000a6c:	6013      	str	r3, [r2, #0]
 8000a6e:	4770      	bx	lr
 8000a70:	200000ec 	.word	0x200000ec
 8000a74:	200000f0 	.word	0x200000f0

08000a78 <_init>:
 8000a78:	b5f8      	push	{r3, r4, r5, r6, r7, lr}
 8000a7a:	bf00      	nop
 8000a7c:	bcf8      	pop	{r3, r4, r5, r6, r7}
 8000a7e:	bc08      	pop	{r3}
 8000a80:	469e      	mov	lr, r3
 8000a82:	4770      	bx	lr

08000a84 <_fini>:
 8000a84:	b5f8      	push	{r3, r4, r5, r6, r7, lr}
 8000a86:	bf00      	nop
 8000a88:	bcf8      	pop	{r3, r4, r5, r6, r7}
 8000a8a:	bc08      	pop	{r3}
 8000a8c:	469e      	mov	lr, r3
 8000a8e:	4770      	bx	lr
